target datalayout = "e-m:e-p270:32:32-p271:32:32-p272:64:64-i64:64-i128:128-f80:128-n8:16:32:64-S128"
target triple = "x86_64-pc-linux-gnu"

%struct.lua_TValue = type { %union.Value, [1 x i32], i32 }
%union.Value = type { ptr }
%struct.LuaTable = type { i8, i8, i8, i8, i8, i8, i8, i8, i32, %union.anon, ptr, ptr, ptr, ptr }
%union.anon = type { i32 }
%struct.LuaNode = type { %struct.lua_TValue, %struct.TKey }
%struct.TKey = type { %union.Value, [1 x i32], i32 }
%struct.TString = type { i8, i8, i8, i16, ptr, i32, i32, [1 x i8] }

@luaO_nilobject_ = external hidden global %struct.lua_TValue, align 8

; Function Attrs: mustprogress nounwind uwtable
define hidden noundef ptr @_Z11luaH_getstrP8LuaTableP7TString(ptr noundef %0, ptr noundef %1) #4 {
  %3 = alloca ptr, align 8
  %4 = alloca ptr, align 8
  %5 = alloca ptr, align 8
  %6 = alloca ptr, align 8
  %7 = alloca i32, align 4
  store ptr %0, ptr %4, align 8, !tbaa !9
  store ptr %1, ptr %5, align 8, !tbaa !76
  call void @llvm.lifetime.start.p0(i64 8, ptr %6) #7
  %8 = load ptr, ptr %4, align 8, !tbaa !9
  %9 = getelementptr inbounds nuw %struct.LuaTable, ptr %8, i32 0, i32 12
  %10 = load ptr, ptr %9, align 8, !tbaa !27
  %11 = load ptr, ptr %5, align 8, !tbaa !76
  %12 = getelementptr inbounds nuw %struct.TString, ptr %11, i32 0, i32 5
  %13 = load i32, ptr %12, align 8, !tbaa !77
  %14 = load ptr, ptr %4, align 8, !tbaa !9
  %15 = getelementptr inbounds nuw %struct.LuaTable, ptr %14, i32 0, i32 6
  %16 = load i8, ptr %15, align 2, !tbaa !26
  %17 = zext i8 %16 to i32
  %18 = shl i32 1, %17
  %19 = sub nsw i32 %18, 1
  %20 = and i32 %13, %19
  %21 = sext i32 %20 to i64
  %22 = getelementptr inbounds %struct.LuaNode, ptr %10, i64 %21
  store ptr %22, ptr %6, align 8, !tbaa !31
  br label %23

23:                                               ; preds = %48, %2
  %24 = load ptr, ptr %6, align 8, !tbaa !31
  %25 = getelementptr inbounds nuw %struct.LuaNode, ptr %24, i32 0, i32 1
  %26 = getelementptr inbounds nuw %struct.TKey, ptr %25, i32 0, i32 2
  %27 = load i32, ptr %26, align 4
  %28 = and i32 %27, 15
  %29 = icmp eq i32 %28, 5
  br i1 %29, label %30, label %40

30:                                               ; preds = %23
  %31 = load ptr, ptr %6, align 8, !tbaa !31
  %32 = getelementptr inbounds nuw %struct.LuaNode, ptr %31, i32 0, i32 1
  %33 = getelementptr inbounds nuw %struct.TKey, ptr %32, i32 0, i32 0
  %34 = load ptr, ptr %33, align 8, !tbaa !22
  %35 = load ptr, ptr %5, align 8, !tbaa !76
  %36 = icmp eq ptr %34, %35
  br i1 %36, label %37, label %40

37:                                               ; preds = %30
  %38 = load ptr, ptr %6, align 8, !tbaa !31
  %39 = getelementptr inbounds nuw %struct.LuaNode, ptr %38, i32 0, i32 0
  store ptr %39, ptr %3, align 8
  store i32 1, ptr %7, align 4
  br label %58

40:                                               ; preds = %30, %23
  %41 = load ptr, ptr %6, align 8, !tbaa !31
  %42 = getelementptr inbounds nuw %struct.LuaNode, ptr %41, i32 0, i32 1
  %43 = getelementptr inbounds nuw %struct.TKey, ptr %42, i32 0, i32 2
  %44 = load i32, ptr %43, align 4
  %45 = ashr i32 %44, 4
  %46 = icmp eq i32 %45, 0
  br i1 %46, label %47, label %48

47:                                               ; preds = %40
  br label %57

48:                                               ; preds = %40
  %49 = load ptr, ptr %6, align 8, !tbaa !31
  %50 = getelementptr inbounds nuw %struct.LuaNode, ptr %49, i32 0, i32 1
  %51 = getelementptr inbounds nuw %struct.TKey, ptr %50, i32 0, i32 2
  %52 = load i32, ptr %51, align 4
  %53 = ashr i32 %52, 4
  %54 = load ptr, ptr %6, align 8, !tbaa !31
  %55 = sext i32 %53 to i64
  %56 = getelementptr inbounds %struct.LuaNode, ptr %54, i64 %55
  store ptr %56, ptr %6, align 8, !tbaa !31
  br label %23, !llvm.loop !79

57:                                               ; preds = %47
  store ptr @luaO_nilobject_, ptr %3, align 8
  store i32 1, ptr %7, align 4
  br label %58

58:                                               ; preds = %57, %37
  call void @llvm.lifetime.end.p0(i64 8, ptr %6) #7
  %59 = load ptr, ptr %3, align 8
  ret ptr %59
}

; Function Attrs: mustprogress uwtable
define hidden noundef ptr @_Z11luaH_setstrP9lua_StateP8LuaTableP7TString(ptr noundef %0, ptr noundef %1, ptr noundef %2) #0 {
  %4 = alloca ptr, align 8
  %5 = alloca ptr, align 8
  %6 = alloca ptr, align 8
  %7 = alloca ptr, align 8
  %8 = alloca ptr, align 8
  %9 = alloca i32, align 4
  %10 = alloca %struct.lua_TValue, align 8
  %11 = alloca ptr, align 8
  store ptr %0, ptr %5, align 8, !tbaa !4
  store ptr %1, ptr %6, align 8, !tbaa !9
  store ptr %2, ptr %7, align 8, !tbaa !76
  call void @llvm.lifetime.start.p0(i64 8, ptr %8) #7
  %12 = load ptr, ptr %6, align 8, !tbaa !9
  %13 = load ptr, ptr %7, align 8, !tbaa !76
  %14 = call noundef ptr @_Z11luaH_getstrP8LuaTableP7TString(ptr noundef %12, ptr noundef %13)
  store ptr %14, ptr %8, align 8, !tbaa !11
  %15 = load ptr, ptr %6, align 8, !tbaa !9
  %16 = getelementptr inbounds nuw %struct.LuaTable, ptr %15, i32 0, i32 3
  store i8 0, ptr %16, align 1, !tbaa !67
  %17 = load ptr, ptr %8, align 8, !tbaa !11
  %18 = icmp ne ptr %17, @luaO_nilobject_
  br i1 %18, label %19, label %21

19:                                               ; preds = %3
  %20 = load ptr, ptr %8, align 8, !tbaa !11
  store ptr %20, ptr %4, align 8
  store i32 1, ptr %9, align 4
  br label %30

21:                                               ; preds = %3
  call void @llvm.lifetime.start.p0(i64 16, ptr %10) #7
  call void @llvm.lifetime.start.p0(i64 8, ptr %11) #7
  store ptr %10, ptr %11, align 8, !tbaa !11
  %22 = load ptr, ptr %7, align 8, !tbaa !76
  %23 = load ptr, ptr %11, align 8, !tbaa !11
  %24 = getelementptr inbounds nuw %struct.lua_TValue, ptr %23, i32 0, i32 0
  store ptr %22, ptr %24, align 8, !tbaa !22
  %25 = load ptr, ptr %11, align 8, !tbaa !11
  %26 = getelementptr inbounds nuw %struct.lua_TValue, ptr %25, i32 0, i32 2
  store i32 5, ptr %26, align 4, !tbaa !20
  call void @llvm.lifetime.end.p0(i64 8, ptr %11) #7
  %27 = load ptr, ptr %5, align 8, !tbaa !4
  %28 = load ptr, ptr %6, align 8, !tbaa !9
  %29 = call noundef ptr @_ZL6newkeyP9lua_StateP8LuaTablePK10lua_TValue(ptr noundef %27, ptr noundef %28, ptr noundef %10)
  store ptr %29, ptr %4, align 8
  store i32 1, ptr %9, align 4
  call void @llvm.lifetime.end.p0(i64 16, ptr %10) #7
  br label %30

30:                                               ; preds = %21, %19
  call void @llvm.lifetime.end.p0(i64 8, ptr %8) #7
  %31 = load ptr, ptr %4, align 8
  ret ptr %31
}