; Function Attrs: mustprogress uwtable
define hidden noundef ptr @_Z11luaH_setstrP9lua_StateP8LuaTableP7TString(ptr noundef %0, ptr noundef %1, ptr noundef %2) local_unnamed_addr #0 {
  %4 = alloca %struct.lua_TValue, align 8
  %5 = getelementptr inbounds nuw i8, ptr %1, i64 32
  %6 = load ptr, ptr %5, align 8, !tbaa !17
  %7 = getelementptr inbounds nuw i8, ptr %2, i64 16
  %8 = load i32, ptr %7, align 8, !tbaa !64
  %9 = getelementptr inbounds nuw i8, ptr %1, i64 6
  %10 = load i8, ptr %9, align 2, !tbaa !22
  %11 = zext nneg i8 %10 to i32
  %notmask.i = shl nsw i32 -1, %11
  %12 = xor i32 %notmask.i, -1
  %13 = and i32 %8, %12
  %14 = zext nneg i32 %13 to i64
  %15 = getelementptr inbounds nuw %struct.LuaNode, ptr %6, i64 %14
  br label %16

16:                                               ; preds = %28, %3
  %.0.i = phi ptr [ %15, %3 ], [ %31, %28 ]
  %17 = getelementptr inbounds nuw i8, ptr %.0.i, i64 28
  %18 = load i32, ptr %17, align 4
  %19 = and i32 %18, 15
  %20 = icmp eq i32 %19, 5
  br i1 %20, label %21, label %25

21:                                               ; preds = %16
  %22 = getelementptr inbounds nuw i8, ptr %.0.i, i64 16
  %23 = load ptr, ptr %22, align 8, !tbaa !16
  %24 = icmp eq ptr %23, %2
  br i1 %24, label %_Z11luaH_getstrP8LuaTableP7TString.exit, label %25

25:                                               ; preds = %21, %16
  %26 = icmp ult i32 %18, 16
  br i1 %26, label %_Z11luaH_getstrP8LuaTableP7TString.exit.thread, label %28

_Z11luaH_getstrP8LuaTableP7TString.exit.thread:   ; preds = %25
  %27 = getelementptr inbounds nuw i8, ptr %1, i64 3
  store i8 0, ptr %27, align 1, !tbaa !63
  br label %33

28:                                               ; preds = %25
  %29 = ashr i32 %18, 4
  %30 = sext i32 %29 to i64
  %31 = getelementptr inbounds %struct.LuaNode, ptr %.0.i, i64 %30
  br label %16, !llvm.loop !66

_Z11luaH_getstrP8LuaTableP7TString.exit:          ; preds = %21
  %32 = getelementptr inbounds nuw i8, ptr %1, i64 3
  store i8 0, ptr %32, align 1, !tbaa !63
  %.not = icmp eq ptr %.0.i, @luaO_nilobject_
  br i1 %.not, label %33, label %36

33:                                               ; preds = %_Z11luaH_getstrP8LuaTableP7TString.exit.thread, %_Z11luaH_getstrP8LuaTableP7TString.exit
  call void @llvm.lifetime.start.p0(i64 16, ptr nonnull %4) #11
  store ptr %2, ptr %4, align 8, !tbaa !16
  %34 = getelementptr inbounds nuw i8, ptr %4, i64 12
  store i32 5, ptr %34, align 4, !tbaa !4
  %35 = call fastcc noundef ptr @_ZL6newkeyP9lua_StateP8LuaTablePK10lua_TValue(ptr noundef %0, ptr noundef nonnull %1, ptr noundef nonnull %4)
  call void @llvm.lifetime.end.p0(i64 16, ptr nonnull %4) #11
  br label %36

36:                                               ; preds = %_Z11luaH_getstrP8LuaTableP7TString.exit, %33
  %.0 = phi ptr [ %35, %33 ], [ %.0.i, %_Z11luaH_getstrP8LuaTableP7TString.exit ]
  ret ptr %.0
}